Certificate:
    Data:
        Version: 3 (0x2)
        Serial Number:
            51:ba:1a:cf:cb:4c:9b:3f:26:9d:da:b6:c7:53:92:13:d4:18:4a:fe
        Signature Algorithm: sha256WithRSAEncryption
        Issuer: C=TN, ST=TUNISIA, O=INSAT, OU=GL, CN=CA/emailAddress=CA@GMAIL.COM
        Validity
            Not Before: Jan 21 09:13:05 2020 GMT
            Not After : Jan 14 09:13:05 2045 GMT
        Subject: C=TN, ST=TUNISIA, O=INSAT, OU=GL, CN=CA/emailAddress=CA@GMAIL.COM
        Subject Public Key Info:
            Public Key Algorithm: rsaEncryption
                RSA Public-Key: (2048 bit)
                Modulus:
                    00:ac:95:db:83:c4:87:f4:3b:85:98:19:9b:dc:de:
                    09:f2:ef:e6:07:28:46:f6:45:cc:79:3d:73:ec:f9:
                    7d:f6:28:1a:21:a9:45:73:7e:d1:26:49:db:b7:ec:
                    0d:d5:b4:de:3a:dc:31:2b:65:41:ef:6a:ba:aa:1e:
                    52:6a:fe:98:49:ab:b9:b3:15:2d:37:54:ea:b5:00:
                    53:f2:6f:f3:05:d2:ba:cf:f0:07:af:7d:24:af:92:
                    f3:42:94:04:6e:d7:05:d5:e2:05:54:18:6f:22:aa:
                    44:a4:3d:2c:3c:69:aa:d4:f8:e6:cb:65:b9:f4:c5:
                    85:0e:cb:94:9d:eb:51:db:6c:ff:b5:a7:13:ee:8e:
                    5d:1f:b5:74:34:b5:38:e2:c8:94:c9:92:9a:b1:9e:
                    35:82:d3:a2:a5:25:6e:2b:8c:96:6e:0e:8d:76:4c:
                    30:34:09:b5:75:15:55:31:14:f6:08:15:5b:c0:d8:
                    fa:13:03:fd:b1:bb:f2:93:4b:96:e0:c2:fe:46:bc:
                    cc:69:f0:84:b4:69:1e:3e:d5:d2:7a:83:c5:f6:95:
                    0c:89:ad:0b:6e:eb:30:0e:d2:82:1d:c4:0c:32:c7:
                    4a:78:59:f9:76:60:b0:ae:cc:e6:77:14:3f:58:32:
                    5d:e2:2f:46:11:51:2b:66:2b:e7:6d:41:06:9b:ee:
                    d0:a9
                Exponent: 65537 (0x10001)
        X509v3 extensions:
            X509v3 Subject Key Identifier: 
                D3:4C:41:34:B2:71:61:FA:D4:0B:29:FB:1A:40:C0:14:88:82:DA:3D
            X509v3 Authority Key Identifier: 
                keyid:D3:4C:41:34:B2:71:61:FA:D4:0B:29:FB:1A:40:C0:14:88:82:DA:3D

            X509v3 Basic Constraints: critical
                CA:TRUE
    Signature Algorithm: sha256WithRSAEncryption
         52:b9:da:36:c5:8c:0d:4c:27:de:a7:00:c4:cc:aa:3f:e7:d6:
         1a:dc:48:31:95:82:1d:e2:2c:05:48:07:8f:89:8c:b1:b8:be:
         d3:e6:44:f6:21:9c:85:0f:44:a4:f3:13:11:a4:67:31:12:e7:
         44:e3:05:c2:18:56:10:ef:dd:3f:4b:7a:11:49:3f:2d:74:8b:
         fb:4c:2e:a5:fe:03:5f:a1:95:67:89:77:f9:fa:f8:28:08:58:
         07:44:ea:27:1d:c7:54:a9:94:96:01:12:36:41:56:42:a0:0a:
         da:af:fb:a2:21:2a:4b:bc:0b:2f:d6:a5:58:33:e1:a7:1c:4b:
         67:ce:f9:d5:cc:4d:d2:b7:71:74:42:4e:59:cc:38:3d:92:57:
         63:a8:18:ef:a1:be:c4:de:72:c6:26:b1:e5:05:ae:0d:19:17:
         6b:ba:cd:b3:a6:38:bd:2e:a4:e1:68:24:5a:bc:29:39:14:a5:
         a3:6f:c9:06:68:7e:e6:6d:d2:ee:59:63:2f:c9:bd:8b:11:41:
         bb:00:9e:45:27:13:b7:33:de:80:50:1b:8e:d4:f5:10:a9:f3:
         3a:09:db:d0:20:4c:92:59:e8:5f:04:2c:ab:ab:2e:d6:d6:1e:
         ba:0e:ab:5d:26:c9:4c:3c:6f:d7:cf:1b:1a:a4:e7:80:d0:0c:
         94:cc:3d:03
-----BEGIN CERTIFICATE-----
MIIDrTCCApWgAwIBAgIUUboaz8tMmz8mndq2x1OSE9QYSv4wDQYJKoZIhvcNAQEL
BQAwZjELMAkGA1UEBhMCVE4xEDAOBgNVBAgMB1RVTklTSUExDjAMBgNVBAoMBUlO
U0FUMQswCQYDVQQLDAJHTDELMAkGA1UEAwwCQ0ExGzAZBgkqhkiG9w0BCQEWDENB
QEdNQUlMLkNPTTAeFw0yMDAxMjEwOTEzMDVaFw00NTAxMTQwOTEzMDVaMGYxCzAJ
BgNVBAYTAlROMRAwDgYDVQQIDAdUVU5JU0lBMQ4wDAYDVQQKDAVJTlNBVDELMAkG
A1UECwwCR0wxCzAJBgNVBAMMAkNBMRswGQYJKoZIhvcNAQkBFgxDQUBHTUFJTC5D
T00wggEiMA0GCSqGSIb3DQEBAQUAA4IBDwAwggEKAoIBAQCslduDxIf0O4WYGZvc
3gny7+YHKEb2Rcx5PXPs+X32KBohqUVzftEmSdu37A3VtN463DErZUHvarqqHlJq
/phJq7mzFS03VOq1AFPyb/MF0rrP8AevfSSvkvNClARu1wXV4gVUGG8iqkSkPSw8
aarU+ObLZbn0xYUOy5Sd61HbbP+1pxPujl0ftXQ0tTjiyJTJkpqxnjWC06KlJW4r
jJZuDo12TDA0CbV1FVUxFPYIFVvA2PoTA/2xu/KTS5bgwv5GvMxp8IS0aR4+1dJ6
g8X2lQyJrQtu6zAO0oIdxAwyx0p4Wfl2YLCuzOZ3FD9YMl3iL0YRUStmK+dtQQab
7tCpAgMBAAGjUzBRMB0GA1UdDgQWBBTTTEE0snFh+tQLKfsaQMAUiILaPTAfBgNV
HSMEGDAWgBTTTEE0snFh+tQLKfsaQMAUiILaPTAPBgNVHRMBAf8EBTADAQH/MA0G
CSqGSIb3DQEBCwUAA4IBAQBSudo2xYwNTCfepwDEzKo/59Ya3EgxlYId4iwFSAeP
iYyxuL7T5kT2IZyFD0Sk8xMRpGcxEudE4wXCGFYQ790/S3oRST8tdIv7TC6l/gNf
oZVniXf5+vgoCFgHROonHcdUqZSWARI2QVZCoArar/uiISpLvAsv1qVYM+GnHEtn
zvnVzE3St3F0Qk5ZzDg9kldjqBjvob7E3nLGJrHlBa4NGRdrus2zpji9LqThaCRa
vCk5FKWjb8kGaH7mbdLuWWMvyb2LEUG7AJ5FJxO3M96AUBuO1PUQqfM6CdvQIEyS
WehfBCyrqy7W1h66DqtdJslMPG/XzxsapOeA0AyUzD0D
-----END CERTIFICATE-----
